; Function Attrs: mustprogress uwtable
define hidden void @_ZN4cvc58internal6theory23SharedSolverDistributed25preRegisterSharedInternalENS0_12NodeTemplateILb0EEE(ptr noundef nonnull align 8 dereferenceable(976) %this, ptr nocapture noundef readonly %t) unnamed_addr #3 align 2 personality ptr @__gxx_personality_v0 {
entry:
  %agg.tmp = alloca %"class.cvc5::internal::NodeTemplate.47", align 8
  %0 = load ptr, ptr %t, align 8
  %d_kind.i = getelementptr inbounds i8, ptr %0, i64 8
  %bf.load.i = load i16, ptr %d_kind.i, align 8
  %bf.clear.i = and i16 %bf.load.i, 1023
  %cmp = icmp eq i16 %bf.clear.i, 5
  br i1 %cmp, label %if.then, label %if.end

if.then:                                          ; preds = %entry
  %d_sharedTerms = getelementptr inbounds i8, ptr %this, i64 32
  store ptr %0, ptr %agg.tmp, align 8
  call void @_ZN4cvc58internal19SharedTermsDatabase22addEqualityToPropagateENS0_12NodeTemplateILb0EEE(ptr noundef nonnull align 8 dereferenceable(592) %d_sharedTerms, ptr noundef nonnull %agg.tmp)
  br label %if.end

if.end:                                           ; preds = %if.then, %entry
  ret void
}